target datalayout = "e-m:e-p270:32:32-p271:32:32-p272:64:64-i64:64-i128:128-f80:128-n8:16:32:64-S128"
target triple = "x86_64-pc-linux-gnu"

; Function Attrs: alwaysinline nounwind
define internal ptr @memcpy.inline(ptr noalias nonnull %0, ptr noalias nonnull %1, i64 %2) #3 {
  %4 = alloca ptr, align 8
  %5 = alloca ptr, align 8
  %6 = alloca i64, align 8
  store ptr %0, ptr %4, align 8, !tbaa !27
  store ptr %1, ptr %5, align 8, !tbaa !27
  store i64 %2, ptr %6, align 8, !tbaa !16
  %7 = load ptr, ptr %4, align 8, !tbaa !27
  %8 = load ptr, ptr %5, align 8, !tbaa !27
  %9 = load i64, ptr %6, align 8, !tbaa !16
  %10 = load ptr, ptr %4, align 8, !tbaa !27
  %11 = call i64 @llvm.objectsize.i64.p0(ptr %10, i1 false, i1 true, i1 false)
  %12 = call ptr @__memcpy_chk(ptr noundef %7, ptr noundef %8, i64 noundef %9, i64 noundef %11) #5
  ret ptr %12
}

; Function Attrs: nounwind sspstrong uwtable
define hidden void @FLAC__fixed_compute_residual_wide(ptr noundef %0, i32 noundef %1, i32 noundef %2, ptr noundef %3) #0 {
  %5 = alloca ptr, align 8
  %6 = alloca i32, align 4
  %7 = alloca i32, align 4
  %8 = alloca ptr, align 8
  %9 = alloca i32, align 4
  %10 = alloca i32, align 4
  store ptr %0, ptr %5, align 8, !tbaa !3
  store i32 %1, ptr %6, align 4, !tbaa !8
  store i32 %2, ptr %7, align 4, !tbaa !8
  store ptr %3, ptr %8, align 8, !tbaa !3
  call void @llvm.lifetime.start.p0(i64 4, ptr %9) #5
  %11 = load i32, ptr %6, align 4, !tbaa !8
  store i32 %11, ptr %9, align 4, !tbaa !8
  call void @llvm.lifetime.start.p0(i64 4, ptr %10) #5
  %12 = load i32, ptr %7, align 4, !tbaa !8
  switch i32 %12, label %190 [
    i32 0, label %13
    i32 1, label %20
    i32 2, label %49
    i32 3, label %87
    i32 4, label %134
  ]

13:                                               ; preds = %4
  %14 = load ptr, ptr %8, align 8, !tbaa !3
  %15 = load ptr, ptr %5, align 8, !tbaa !3
  %16 = load i32, ptr %6, align 4, !tbaa !8
  %17 = zext i32 %16 to i64
  %18 = mul i64 4, %17
  %19 = call ptr @memcpy.inline(ptr noundef %14, ptr noundef %15, i64 noundef %18) #5
  br label %191

20:                                               ; preds = %4
  store i32 0, ptr %10, align 4, !tbaa !8
  br label %21

21:                                               ; preds = %45, %20
  %22 = load i32, ptr %10, align 4, !tbaa !8
  %23 = load i32, ptr %9, align 4, !tbaa !8
  %24 = icmp slt i32 %22, %23
  br i1 %24, label %25, label %48

25:                                               ; preds = %21
  %26 = load ptr, ptr %5, align 8, !tbaa !3
  %27 = load i32, ptr %10, align 4, !tbaa !8
  %28 = sext i32 %27 to i64
  %29 = getelementptr inbounds i32, ptr %26, i64 %28
  %30 = load i32, ptr %29, align 4, !tbaa !8
  %31 = sext i32 %30 to i64
  %32 = load ptr, ptr %5, align 8, !tbaa !3
  %33 = load i32, ptr %10, align 4, !tbaa !8
  %34 = sub nsw i32 %33, 1
  %35 = sext i32 %34 to i64
  %36 = getelementptr inbounds i32, ptr %32, i64 %35
  %37 = load i32, ptr %36, align 4, !tbaa !8
  %38 = sext i32 %37 to i64
  %39 = sub nsw i64 %31, %38
  %40 = trunc i64 %39 to i32
  %41 = load ptr, ptr %8, align 8, !tbaa !3
  %42 = load i32, ptr %10, align 4, !tbaa !8
  %43 = sext i32 %42 to i64
  %44 = getelementptr inbounds i32, ptr %41, i64 %43
  store i32 %40, ptr %44, align 4, !tbaa !8
  br label %45

45:                                               ; preds = %25
  %46 = load i32, ptr %10, align 4, !tbaa !8
  %47 = add nsw i32 %46, 1
  store i32 %47, ptr %10, align 4, !tbaa !8
  br label %21, !llvm.loop !28

48:                                               ; preds = %21
  br label %191

49:                                               ; preds = %4
  store i32 0, ptr %10, align 4, !tbaa !8
  br label %50

50:                                               ; preds = %83, %49
  %51 = load i32, ptr %10, align 4, !tbaa !8
  %52 = load i32, ptr %9, align 4, !tbaa !8
  %53 = icmp slt i32 %51, %52
  br i1 %53, label %54, label %86

54:                                               ; preds = %50
  %55 = load ptr, ptr %5, align 8, !tbaa !3
  %56 = load i32, ptr %10, align 4, !tbaa !8
  %57 = sext i32 %56 to i64
  %58 = getelementptr inbounds i32, ptr %55, i64 %57
  %59 = load i32, ptr %58, align 4, !tbaa !8
  %60 = sext i32 %59 to i64
  %61 = load ptr, ptr %5, align 8, !tbaa !3
  %62 = load i32, ptr %10, align 4, !tbaa !8
  %63 = sub nsw i32 %62, 1
  %64 = sext i32 %63 to i64
  %65 = getelementptr inbounds i32, ptr %61, i64 %64
  %66 = load i32, ptr %65, align 4, !tbaa !8
  %67 = sext i32 %66 to i64
  %68 = mul nsw i64 2, %67
  %69 = sub nsw i64 %60, %68
  %70 = load ptr, ptr %5, align 8, !tbaa !3
  %71 = load i32, ptr %10, align 4, !tbaa !8
  %72 = sub nsw i32 %71, 2
  %73 = sext i32 %72 to i64
  %74 = getelementptr inbounds i32, ptr %70, i64 %73
  %75 = load i32, ptr %74, align 4, !tbaa !8
  %76 = sext i32 %75 to i64
  %77 = add nsw i64 %69, %76
  %78 = trunc i64 %77 to i32
  %79 = load ptr, ptr %8, align 8, !tbaa !3
  %80 = load i32, ptr %10, align 4, !tbaa !8
  %81 = sext i32 %80 to i64
  %82 = getelementptr inbounds i32, ptr %79, i64 %81
  store i32 %78, ptr %82, align 4, !tbaa !8
  br label %83

83:                                               ; preds = %54
  %84 = load i32, ptr %10, align 4, !tbaa !8
  %85 = add nsw i32 %84, 1
  store i32 %85, ptr %10, align 4, !tbaa !8
  br label %50, !llvm.loop !29

86:                                               ; preds = %50
  br label %191

87:                                               ; preds = %4
  store i32 0, ptr %10, align 4, !tbaa !8
  br label %88

88:                                               ; preds = %130, %87
  %89 = load i32, ptr %10, align 4, !tbaa !8
  %90 = load i32, ptr %9, align 4, !tbaa !8
  %91 = icmp slt i32 %89, %90
  br i1 %91, label %92, label %133

92:                                               ; preds = %88
  %93 = load ptr, ptr %5, align 8, !tbaa !3
  %94 = load i32, ptr %10, align 4, !tbaa !8
  %95 = sext i32 %94 to i64
  %96 = getelementptr inbounds i32, ptr %93, i64 %95
  %97 = load i32, ptr %96, align 4, !tbaa !8
  %98 = sext i32 %97 to i64
  %99 = load ptr, ptr %5, align 8, !tbaa !3
  %100 = load i32, ptr %10, align 4, !tbaa !8
  %101 = sub nsw i32 %100, 1
  %102 = sext i32 %101 to i64
  %103 = getelementptr inbounds i32, ptr %99, i64 %102
  %104 = load i32, ptr %103, align 4, !tbaa !8
  %105 = sext i32 %104 to i64
  %106 = mul nsw i64 3, %105
  %107 = sub nsw i64 %98, %106
  %108 = load ptr, ptr %5, align 8, !tbaa !3
  %109 = load i32, ptr %10, align 4, !tbaa !8
  %110 = sub nsw i32 %109, 2
  %111 = sext i32 %110 to i64
  %112 = getelementptr inbounds i32, ptr %108, i64 %111
  %113 = load i32, ptr %112, align 4, !tbaa !8
  %114 = sext i32 %113 to i64
  %115 = mul nsw i64 3, %114
  %116 = add nsw i64 %107, %115
  %117 = load ptr, ptr %5, align 8, !tbaa !3
  %118 = load i32, ptr %10, align 4, !tbaa !8
  %119 = sub nsw i32 %118, 3
  %120 = sext i32 %119 to i64
  %121 = getelementptr inbounds i32, ptr %117, i64 %120
  %122 = load i32, ptr %121, align 4, !tbaa !8
  %123 = sext i32 %122 to i64
  %124 = sub nsw i64 %116, %123
  %125 = trunc i64 %124 to i32
  %126 = load ptr, ptr %8, align 8, !tbaa !3
  %127 = load i32, ptr %10, align 4, !tbaa !8
  %128 = sext i32 %127 to i64
  %129 = getelementptr inbounds i32, ptr %126, i64 %128
  store i32 %125, ptr %129, align 4, !tbaa !8
  br label %130

130:                                              ; preds = %92
  %131 = load i32, ptr %10, align 4, !tbaa !8
  %132 = add nsw i32 %131, 1
  store i32 %132, ptr %10, align 4, !tbaa !8
  br label %88, !llvm.loop !30

133:                                              ; preds = %88
  br label %191

134:                                              ; preds = %4
  store i32 0, ptr %10, align 4, !tbaa !8
  br label %135

135:                                              ; preds = %186, %134
  %136 = load i32, ptr %10, align 4, !tbaa !8
  %137 = load i32, ptr %9, align 4, !tbaa !8
  %138 = icmp slt i32 %136, %137
  br i1 %138, label %139, label %189

139:                                              ; preds = %135
  %140 = load ptr, ptr %5, align 8, !tbaa !3
  %141 = load i32, ptr %10, align 4, !tbaa !8
  %142 = sext i32 %141 to i64
  %143 = getelementptr inbounds i32, ptr %140, i64 %142
  %144 = load i32, ptr %143, align 4, !tbaa !8
  %145 = sext i32 %144 to i64
  %146 = load ptr, ptr %5, align 8, !tbaa !3
  %147 = load i32, ptr %10, align 4, !tbaa !8
  %148 = sub nsw i32 %147, 1
  %149 = sext i32 %148 to i64
  %150 = getelementptr inbounds i32, ptr %146, i64 %149
  %151 = load i32, ptr %150, align 4, !tbaa !8
  %152 = sext i32 %151 to i64
  %153 = mul nsw i64 4, %152
  %154 = sub nsw i64 %145, %153
  %155 = load ptr, ptr %5, align 8, !tbaa !3
  %156 = load i32, ptr %10, align 4, !tbaa !8
  %157 = sub nsw i32 %156, 2
  %158 = sext i32 %157 to i64
  %159 = getelementptr inbounds i32, ptr %155, i64 %158
  %160 = load i32, ptr %159, align 4, !tbaa !8
  %161 = sext i32 %160 to i64
  %162 = mul nsw i64 6, %161
  %163 = add nsw i64 %154, %162
  %164 = load ptr, ptr %5, align 8, !tbaa !3
  %165 = load i32, ptr %10, align 4, !tbaa !8
  %166 = sub nsw i32 %165, 3
  %167 = sext i32 %166 to i64
  %168 = getelementptr inbounds i32, ptr %164, i64 %167
  %169 = load i32, ptr %168, align 4, !tbaa !8
  %170 = sext i32 %169 to i64
  %171 = mul nsw i64 4, %170
  %172 = sub nsw i64 %163, %171
  %173 = load ptr, ptr %5, align 8, !tbaa !3
  %174 = load i32, ptr %10, align 4, !tbaa !8
  %175 = sub nsw i32 %174, 4
  %176 = sext i32 %175 to i64
  %177 = getelementptr inbounds i32, ptr %173, i64 %176
  %178 = load i32, ptr %177, align 4, !tbaa !8
  %179 = sext i32 %178 to i64
  %180 = add nsw i64 %172, %179
  %181 = trunc i64 %180 to i32
  %182 = load ptr, ptr %8, align 8, !tbaa !3
  %183 = load i32, ptr %10, align 4, !tbaa !8
  %184 = sext i32 %183 to i64
  %185 = getelementptr inbounds i32, ptr %182, i64 %184
  store i32 %181, ptr %185, align 4, !tbaa !8
  br label %186

186:                                              ; preds = %139
  %187 = load i32, ptr %10, align 4, !tbaa !8
  %188 = add nsw i32 %187, 1
  store i32 %188, ptr %10, align 4, !tbaa !8
  br label %135, !llvm.loop !31

189:                                              ; preds = %135
  br label %191

190:                                              ; preds = %4
  br label %191

191:                                              ; preds = %190, %189, %133, %86, %48, %13
  call void @llvm.lifetime.end.p0(i64 4, ptr %10) #5
  call void @llvm.lifetime.end.p0(i64 4, ptr %9) #5
  ret void
}